(lp1
V1301
p2
aV1303
p3
aV1304
p4
aV1305
p5
aV1307
p6
aV1308
p7
aV1309
p8
aV1310
p9
aV1312
p10
aV1313
p11
aV1314
p12
aV1315
p13
aV1319
p14
aV1321
p15
aV1323
p16
aV1324
p17
aV1325
p18
aV1326
p19
aV1337
p20
aV1339
p21
aV1340
p22
aV1715
p23
aV4306
p24
a.