(lp1
V2314
p2
aV2321
p3
aV2332
p4
aV2345
p5
aV2412
p6
aV2419
p7
aV2439
p8
aV2444
p9
aV2450
p10
aV2455
p11
aV2485
p12
aV2496
p13
aV2498
p14
aV3025
p15
aV3027
p16
aV3045
p17
aV3047
p18
aV3062
p19
aV3311
p20
aV3380
p21
aV3419
p22
aV3596
p23
aV3682
p24
aV3694
p25
aV3704
p26
aV4904
p27
aV4906
p28
aV4977
p29
aV4984
p30
aV5388
p31
aV6136
p32
aV6142
p33
aV6152
p34
aV6216
p35
aV6283
p36
aV6285
p37
aV8011
p38
aV8101
p39
a.