(lp1
V0050
p2
aV0051
p3
aV0052
p4
aV0053
p5
aV0054
p6
aV0055
p7
aV0056
p8
aV0057
p9
aV0058
p10
aV0059
p11
aV0060
p12
aV0061
p13
aV006203
p14
aV006204
p15
aV006205
p16
aV006206
p17
aV006207
p18
aV006208
p19
aV0080
p20
aV0081
p21
aV008201
p22
a.