(lp1
V1532
p2
aV2002
p3
aV2006
p4
aV2007
p5
aV2008
p6
aV2009
p7
aV2010
p8
aV2012
p9
aV2013
p10
aV2014
p11
aV2015
p12
aV2017
p13
aV2020
p14
aV2022
p15
aV2023
p16
aV2024
p17
aV2025
p18
aV2027
p19
aV2028
p20
aV2029
p21
aV2030
p22
aV2031
p23
aV2032
p24
aV2033
p25
aV2034
p26
aV2038
p27
aV3004
p28
aV5007
p29
aV5538
p30
aV9958
p31
a.