(lp1
V1402
p2
aV1409
p3
aV1410
p4
aV1413
p5
aV1414
p6
aV1416
p7
aV1417
p8
aV1418
p9
aV1419
p10
aV1423
p11
aV1432
p12
aV1434
p13
aV1439
p14
aV1440
p15
aV1441
p16
aV1443
p17
aV1444
p18
aV1445
p19
aV1446
p20
aV1447
p21
aV1449
p22
aV1451
p23
aV1452
p24
aV1453
p25
aV1454
p26
aV1455
p27
aV1456
p28
aV1457
p29
aV1459
p30
aV1460
p31
aV1463
p32
aV1464
p33
aV1465
p34
aV1466
p35
aV1467
p36
aV1468
p37
aV1469
p38
aV1470
p39
aV1472
p40
aV1473
p41
aV1474
p42
aV1475
p43
aV1476
p44
aV1477
p45
aV4414
p46
aV4426
p47
a.