(lp1
V2208
p2
aV2603
p3
aV2605
p4
aV2606
p5
aV2607
p6
aV2608
p7
aV2609
p8
aV2610
p9
aV2611
p10
aV2612
p11
aV2613
p12
aV2615
p13
aV2617
p14
aV2618
p15
aV2637
p16
aV2642
p17
aV5607
p18
aV5608
p19
aV6702
p20
a.