(lp1
V2312
p2
aV2317
p3
aV2354
p4
aV2359
p5
aV2360
p6
aV2373
p7
aV2390
p8
aV2404
p9
aV2423
p10
aV2433
p11
aV2461
p12
aV2464
p13
aV2474
p14
aV2477
p15
aV2482
p16
aV2488
p17
aV2495
p18
aV2497
p19
aV3018
p20
aV3030
p21
aV3043
p22
aV3305
p23
aV3450
p24
aV3518
p25
aV3617
p26
aV3665
p27
aV5225
p28
aV6139
p29
aV6192
p30
aV6196
p31
aV6201
p32
aV6215
p33
aV6409
p34
aV8021
p35
aV8201
p36
a.