(lp1
V1436
p2
aV1438
p3
aV1442
p4
aV1805
p5
aV1808
p6
aV2501
p7
aV2504
p8
aV2505
p9
aV2506
p10
aV2509
p11
aV2511
p12
aV2515
p13
aV2516
p14
aV2520
p15
aV2524
p16
aV2527
p17
aV2528
p18
aV2530
p19
aV2534
p20
aV2535
p21
aV2536
p22
aV2537
p23
aV2538
p24
aV2539
p25
aV2540
p26
aV2542
p27
aV2543
p28
aV2545
p29
aV2546
p30
aV2547
p31
aV2548
p32
aV2597
p33
aV2841
p34
aV2923
p35
aV3052
p36
aV3056
p37
aV3266
p38
aV3703
p39
aV5515
p40
aV5519
p41
aV5521
p42
aV5522
p43
aV5525
p44
aV5531
p45
aV5533
p46
aV5534
p47
aV6177
p48
aV9906
p49
aV9946
p50
a.