(lp1
V1471
p2
aV1582
p3
aV2059
p4
aV2308
p5
aV2313
p6
aV2316
p7
aV2327
p8
aV2328
p9
aV2355
p10
aV2367
p11
aV2368
p12
aV2375
p13
aV2383
p14
aV2385
p15
aV2392
p16
aV2402
p17
aV2413
p18
aV2415
p19
aV2420
p20
aV2421
p21
aV2428
p22
aV2429
p23
aV2431
p24
aV2437
p25
aV2440
p26
aV2443
p27
aV2456
p28
aV2457
p29
aV2460
p30
aV2462
p31
aV2467
p32
aV2472
p33
aV2476
p34
aV2478
p35
aV2483
p36
aV2484
p37
aV2492
p38
aV2493
p39
aV3003
p40
aV3011
p41
aV3015
p42
aV3021
p43
aV3023
p44
aV3026
p45
aV3032
p46
aV3037
p47
aV3042
p48
aV3044
p49
aV3058
p50
aV3090
p51
aV3229
p52
aV3296
p53
aV3308
p54
aV3338
p55
aV3376
p56
aV3432
p57
aV3501
p58
aV3533
p59
aV3550
p60
aV3605
p61
aV3607
p62
aV3645
p63
aV3653
p64
aV3679
p65
aV4912
p66
aV4958
p67
aV4999
p68
aV5469
p69
aV6108
p70
aV6115
p71
aV6133
p72
aV6141
p73
aV6153
p74
aV6155
p75
aV6165
p76
aV6191
p77
aV6197
p78
aV6205
p79
aV6213
p80
aV6224
p81
aV6251
p82
aV6269
p83
aV6282
p84
aV6412
p85
aV8039
p86
aV8046
p87
aV8103
p88
aV8213
p89
aV8249
p90
a.