(lp1
V1201
p2
aV1203
p3
aV1210
p4
aV1213
p5
aV1215
p6
aV1216
p7
aV1217
p8
aV1218
p9
aV1219
p10
aV1220
p11
aV1225
p12
aV1227
p13
aV1229
p14
aV1231
p15
aV1232
p16
aV1233
p17
aV1234
p18
aV1235
p19
aV1236
p20
aV1702
p21
aV1737
p22
a.