(lp1
V2596
p2
aV3489
p3
aV4113
p4
aV4416
p5
aV4907
p6
aV5206
p7
aV5213
p8
aV5324
p9
aV5505
p10
aV5506
p11
aV5508
p12
aV5511
p13
aV5512
p14
aV5514
p15
aV5516
p16
aV5520
p17
aV5523
p18
aV5529
p19
aV6186
p20
aV6212
p21
aV6219
p22
aV6264
p23
aV8424
p24
a.