(lp1
V1565
p2
aV1593
p3
aV1752
p4
aV1777
p5
aV1781
p6
aV1784
p7
aV1788
p8
aV1795
p9
aV1799
p10
aV1813
p11
aV3118
p12
aV3176
p13
aV3205
p14
aV3218
p15
aV4102
p16
aV4103
p17
aV4105
p18
aV4107
p19
aV4109
p20
aV4111
p21
aV4114
p22
aV4120
p23
aV4121
p24
aV4123
p25
aV4126
p26
aV4127
p27
aV4128
p28
aV4129
p29
aV4130
p30
aV4131
p31
aV4138
p32
aV4139
p33
aV4152
p34
aV4153
p35
aV4154
p36
aV4157
p37
aV4160
p38
aV4161
p39
aV4162
p40
aV4163
p41
aV4168
p42
aV4173
p43
aV4175
p44
aV4180
p45
aV4726
p46
aV4728
p47
aV4735
p48
aV4736
p49
aV4743
p50
aV4745
p51
aV4747
p52
aV4911
p53
aV6130
p54
aV8403
p55
aV8406
p56
aV8409
p57
aV8432
p58
aV8436
p59
a.