(lp1
V3068
p2
aV3095
p3
aV3152
p4
aV3163
p5
aV3221
p6
aV3234
p7
aV3290
p8
aV3306
p9
aV3363
p10
aV3431
p11
aV3466
p12
aV3491
p13
aV3499
p14
aV3558
p15
aV3564
p16
aV3632
p17
aV3664
p18
aV3684
p19
aV4903
p20
aV4905
p21
aV4908
p22
aV4909
p23
aV4979
p24
aV5348
p25
aV5353
p26
aV6109
p27
aV6143
p28
aV6163
p29
aV6170
p30
aV6190
p31
aV6218
p32
aV6241
p33
aV6245
p34
aV6263
p35
aV8034
p36
aV8048
p37
aV8059
p38
aV8082
p39
aV8097
p40
aV8171
p41
aV8176
p42
a.