(lp1
V2926
p2
aV3064
p3
aV3083
p4
aV3086
p5
aV3293
p6
aV3546
p7
aV3662
p8
aV3687
p9
aV4946
p10
aV5263
p11
aV5278
p12
aV5478
p13
aV6111
p14
aV6144
p15
aV6169
p16
aV6180
p17
aV8446
p18
aV8923
p19
aV9949
p20
a.