(lp1
V1333
p2
aV1336
p3
aV1595
p4
aV1815
p5
aV3078
p6
aV3089
p7
aV3092
p8
aV3114
p9
aV3115
p10
aV3144
p11
aV3191
p12
aV3202
p13
aV3206
p14
aV3207
p15
aV3217
p16
aV3236
p17
aV3276
p18
aV3288
p19
aV3294
p20
aV3299
p21
aV3310
p22
aV3313
p23
aV3322
p24
aV3332
p25
aV3354
p26
aV3388
p27
aV3390
p28
aV3465
p29
aV3484
p30
aV3511
p31
aV3512
p32
aV3520
p33
aV3526
p34
aV3537
p35
aV3548
p36
aV3609
p37
aV3624
p38
aV3631
p39
aV3646
p40
aV3689
p41
aV4927
p42
aV4939
p43
aV4974
p44
aV5227
p45
aV5309
p46
aV5317
p47
aV5321
p48
aV5328
p49
aV5340
p50
aV5345
p51
aV5349
p52
aV5355
p53
aV5381
p54
aV5398
p55
aV5439
p56
aV5457
p57
aV5460
p58
aV5464
p59
aV5475
p60
aV5480
p61
aV5481
p62
aV5488
p63
aV5491
p64
aV5498
p65
aV6101
p66
aV6107
p67
aV6114
p68
aV6124
p69
aV6126
p70
aV6127
p71
aV6134
p72
aV6156
p73
aV6158
p74
aV6173
p75
aV6174
p76
aV6175
p77
aV6185
p78
aV6194
p79
aV6203
p80
aV6204
p81
aV6207
p82
aV6208
p83
aV6210
p84
aV6211
p85
aV6217
p86
aV6220
p87
aV6242
p88
aV6250
p89
aV6259
p90
aV6266
p91
aV6274
p92
aV6279
p93
aV6284
p94
aV6290
p95
aV6292
p96
aV8038
p97
aV8042
p98
aV8043
p99
aV8071
p100
aV8074
p101
aV8080
p102
aV8091
p103
aV8093
p104
aV8109
p105
aV8121
p106
aV8147
p107
aV8155
p108
aV8182
p109
aV8287
p110
aV8289
p111
aV8291
p112
aV8358
p113
a.