(lp1
V3066
p2
aV3128
p3
aV3230
p4
aV3297
p5
aV3339
p6
aV3362
p7
aV3428
p8
aV3434
p9
aV3441
p10
aV3452
p11
aV3455
p12
aV3490
p13
aV3516
p14
aV3522
p15
aV3523
p16
aV3531
p17
aV3562
p18
aV3615
p19
aV3623
p20
aV3629
p21
aV3630
p22
aV3685
p23
aV3691
p24
aV4703
p25
aV4729
p26
aV4933
p27
aV4944
p28
aV4950
p29
aV4972
p30
aV4995
p31
aV5230
p32
aV5251
p33
aV5315
p34
aV5371
p35
aV5392
p36
aV5432
p37
aV5443
p38
aV6125
p39
aV6167
p40
aV6234
p41
aV6244
p42
aV6246
p43
aV8049
p44
aV8053
p45
aV8064
p46
aV8069
p47
aV8087
p48
aV8107
p49
aV8111
p50
aV8240
p51
a.