(lp1
V1566
p2
aV1570
p3
aV1580
p4
aV1586
p5
aV1591
p6
aV1597
p7
aV1599
p8
aV2066
p9
aV2230
p10
aV2233
p11
aV3162
p12
aV3226
p13
aV3379
p14
aV4502
p15
aV4503
p16
aV4506
p17
aV4510
p18
aV4513
p19
aV4523
p20
aV4527
p21
aV4528
p22
aV4530
p23
aV4533
p24
aV4534
p25
aV4535
p26
aV6122
p27
aV6603
p28
aV6609
p29
aV8083
p30
aV8255
p31
aV9951
p32
a.