(lp1
V3073
p2
aV3105
p3
aV3141
p4
aV3169
p5
aV3188
p6
aV3219
p7
aV3227
p8
aV3228
p9
aV3259
p10
aV3260
p11
aV3264
p12
aV3265
p13
aV3268
p14
aV3291
p15
aV3317
p16
aV3372
p17
aV3438
p18
aV3527
p19
aV3529
p20
aV3553
p21
aV3555
p22
aV3556
p23
aV3567
p24
aV3658
p25
aV3675
p26
aV3680
p27
aV4947
p28
aV4966
p29
aV4971
p30
aV4973
p31
aV5272
p32
aV5274
p33
aV5302
p34
aV5314
p35
aV5344
p36
aV5347
p37
aV5351
p38
aV5425
p39
aV5455
p40
aV5468
p41
aV5483
p42
aV5487
p43
aV6103
p44
aV6104
p45
aV6129
p46
aV6138
p47
aV6147
p48
aV6182
p49
aV6198
p50
aV6223
p51
aV6229
p52
aV6233
p53
aV6237
p54
aV6261
p55
aV6287
p56
aV6291
p57
aV6411
p58
aV8024
p59
aV8040
p60
aV8054
p61
aV8079
p62
aV8086
p63
aV8088
p64
aV8277
p65
a.