(lp1
V3085
p2
aV3570
p3
aV4953
p4
aV4965
p5
aV5201
p6
aV5202
p7
aV5209
p8
aV5210
p9
aV5211
p10
aV5212
p11
aV5266
p12
aV5287
p13
aV5310
p14
aV5403
p15
aV5410
p16
aV6140
p17
aV6148
p18
aV6221
p19
aV6231
p20
aV6240
p21
aV8044
p22
aV8099
p23
aV8416
p24
a.