(lp1
V1569
p2
aV3071
p3
aV3088
p4
aV3126
p5
aV3211
p6
aV3213
p7
aV3287
p8
aV3323
p9
aV3325
p10
aV3479
p11
aV3483
p12
aV3521
p13
aV3540
p14
aV3577
p15
aV3594
p16
aV3611
p17
aV3625
p18
aV3652
p19
aV3693
p20
aV4924
p21
aV4987
p22
aV5289
p23
aV5304
p24
aV5356
p25
aV5384
p26
aV5386
p27
aV5426
p28
aV5438
p29
aV5450
p30
aV5465
p31
aV5474
p32
aV5490
p33
aV6105
p34
aV6121
p35
aV6123
p36
aV6150
p37
aV6160
p38
aV6161
p39
aV6188
p40
aV6222
p41
aV6228
p42
aV6276
p43
aV6298
p44
aV8050
p45
aV8076
p46
aV8234
p47
aV8299
p48
aV8410
p49
a.