(lp1
V1316
p2
aV1704
p3
aV1708
p4
aV1709
p5
aV1710
p6
aV1711
p7
aV1712
p8
aV1713
p9
aV1714
p10
aV1717
p11
aV1718
p12
aV1721
p13
aV1722
p14
aV1723
p15
aV1724
p16
aV1725
p17
aV1726
p18
aV1727
p19
aV1730
p20
aV1732
p21
aV1735
p22
aV1773
p23
aV4720
p24
aV4722
p25
aV4725
p26
aV4733
p27
aV4755
p28
a.