(lp1
V2323
p2
aV2340
p3
aV2349
p4
aV2374
p5
aV2384
p6
aV2393
p7
aV2406
p8
aV2409
p9
aV2426
p10
aV2438
p11
aV2448
p12
aV2466
p13
aV2475
p14
aV2486
p15
aV2489
p16
aV2491
p17
aV2499
p18
aV3008
p19
aV3019
p20
aV3024
p21
aV3031
p22
aV3038
p23
aV3049
p24
aV3050
p25
aV3051
p26
aV3059
p27
aV3149
p28
aV3356
p29
aV3383
p30
aV3406
p31
aV3454
p32
aV3481
p33
aV3504
p34
aV3514
p35
aV3535
p36
aV3557
p37
aV3561
p38
aV3573
p39
aV3576
p40
aV3584
p41
aV3591
p42
aV3593
p43
aV3622
p44
aV3669
p45
aV3673
p46
aV3698
p47
aV4934
p48
aV4935
p49
aV4942
p50
aV4956
p51
aV4960
p52
aV4976
p53
aV5234
p54
aV5243
p55
aV5259
p56
aV5484
p57
aV6116
p58
aV6120
p59
aV6131
p60
aV6164
p61
aV6168
p62
aV6176
p63
aV6209
p64
aV6225
p65
aV6226
p66
aV6278
p67
aV6289
p68
aV6405
p69
aV8072
p70
aV8105
p71
aV8215
p72
a.