(lp1
V1437
p2
aV2302
p3
aV2303
p4
aV2311
p5
aV2325
p6
aV2329
p7
aV2330
p8
aV2337
p9
aV2338
p10
aV2342
p11
aV2344
p12
aV2351
p13
aV2363
p14
aV2369
p15
aV2379
p16
aV2388
p17
aV2401
p18
aV2408
p19
aV2434
p20
aV2436
p21
aV2441
p22
aV2449
p23
aV2451
p24
aV2454
p25
aV2458
p26
aV2481
p27
aV3006
p28
aV3014
p29
aV3016
p30
aV3034
p31
aV3035
p32
aV3041
p33
aV3054
p34
aV3094
p35
aV3189
p36
aV3257
p37
aV3443
p38
aV3474
p39
aV3519
p40
aV3532
p41
aV3536
p42
aV3545
p43
aV3559
p44
aV3579
p45
aV3583
p46
aV3588
p47
aV3598
p48
aV3686
p49
aV4919
p50
aV4952
p51
aV5269
p52
aV5285
p53
aV5305
p54
aV5471
p55
aV6202
p56
aV6239
p57
aV6243
p58
aV6257
p59
aV6271
p60
aV6286
p61
aV6415
p62
aV8016
p63
aV8081
p64
aV8110
p65
aV8131
p66
aV8150
p67
aV8261
p68
aV8271
p69
a.