(lp1
V1701
p2
aV1707
p3
aV1720
p4
aV1729
p5
aV1731
p6
aV1733
p7
aV1734
p8
aV1736
p9
aV1762
p10
aV1783
p11
aV1786
p12
aV1789
p13
aV3164
p14
aV3705
p15
aV4104
p16
aV4106
p17
aV4108
p18
aV4119
p19
aV4133
p20
aV4137
p21
aV4141
p22
aV4142
p23
aV4144
p24
aV4164
p25
aV4737
p26
aV4746
p27
a.