(lp1
V9103
p2
aV910322
p3
aV910482
p4
aV9105
p5
aV9106
p6
aV910708
p7
aV910801
p8
aV910861
p9
aV9110
p10
aV911608
p11
aV911611
p12
aV911612
p13
aV911616
p14
aV911619
p15
aV911622
p16
aV911626
p17
aV911868
p18
aV912000
p19
aV912398
p20
aV9136
p21
aV913889
p22
aV9157
p23
aV9188
p24
a.