(lp1
V2801
p2
aV2809
p3
aV2812
p4
aV2816
p5
aV2820
p6
aV2823
p7
aV2832
p8
aV2833
p9
aV2834
p10
aV2836
p11
aV2837
p12
aV2838
p13
aV2845
p14
aV2847
p15
aV2849
p16
aV2850
p17
aV2851
p18
aV2852
p19
aV2855
p20
aV2856
p21
aV2867
p22
aV2880
p23
aV2881
p24
aV2882
p25
aV2883
p26
aV2884
p27
aV2885
p28
aV2886
p29
aV2887
p30
aV2888
p31
aV2889
p32
aV2890
p33
aV2891
p34
aV2892
p35
aV5880
p36
aV6005
p37
a.