(lp1
V1262
p2
aV1435
p3
aV1516
p4
aV2062
p5
aV2348
p6
aV2514
p7
aV2904
p8
aV3040
p9
aV4536
p10
aV5871
p11
aV6184
p12
aV6504
p13
aV8033
p14
aV8404
p15
aV8411
p16
aV8422
p17
aV8427
p18
aV9802
p19
aV9902
p20
aV9904
p21
aV9905
p22
aV9907
p23
aV9910
p24
aV9911
p25
aV9914
p26
aV9917
p27
aV9919
p28
aV9921
p29
aV9924
p30
aV9925
p31
aV9927
p32
aV9928
p33
aV9929
p34
aV9930
p35
aV9933
p36
aV9934
p37
aV9935
p38
aV9938
p39
aV9939
p40
aV9940
p41
aV9941
p42
aV9942
p43
aV9944
p44
aV9945
p45
aV9955
p46
a.