(lp1
V1503
p2
aV1504
p3
aV1506
p4
aV1507
p5
aV1512
p6
aV1513
p7
aV1514
p8
aV1515
p9
aV1517
p10
aV1519
p11
aV1521
p12
aV1522
p13
aV1524
p14
aV1525
p15
aV1526
p16
aV1527
p17
aV1528
p18
aV1529
p19
aV1530
p20
aV1531
p21
aV1533
p22
aV1535
p23
aV1536
p24
aV1537
p25
aV1538
p26
aV1539
p27
aV1540
p28
aV1541
p29
aV1558
p30
aV1560
p31
aV1583
p32
aV1589
p33
aV1590
p34
aV2049
p35
aV2228
p36
aV2231
p37
aV2371
p38
aV3167
p39
aV4526
p40
aV4532
p41
aV6605
p42
aV8374
p43
aV8996
p44
a.