(lp1
V2347
p2
aV2414
p3
aV2430
p4
aV2459
p5
aV3010
p6
aV3028
p7
aV3033
p8
aV3036
p9
aV3048
p10
aV3055
p11
aV3209
p12
aV3312
p13
aV3315
p14
aV3702
p15
aV5434
p16
aV6145
p17
aV6189
p18
aV6281
p19
aV8070
p20
aV8112
p21
a.