(lp1
V2301
p2
aV2305
p3
aV2324
p4
aV2331
p5
aV2352
p6
aV2353
p7
aV2356
p8
aV2357
p9
aV2358
p10
aV2361
p11
aV2362
p12
aV2364
p13
aV2365
p14
aV2376
p15
aV2377
p16
aV2380
p17
aV2382
p18
aV2387
p19
aV2395
p20
aV2397
p21
aV2399
p22
aV2405
p23
aV2417
p24
aV2424
p25
aV2425
p26
aV2442
p27
aV2465
p28
aV3002
p29
aV3005
p30
aV3013
p31
aV3017
p32
aV3022
p33
aV3046
p34
aV3057
p35
aV3060
p36
aV3231
p37
aV3416
p38
aV3494
p39
aV3515
p40
aV3701
p41
aV3706
p42
aV4915
p43
aV4916
p44
aV4938
p45
aV5215
p46
aV5264
p47
aV6117
p48
aV6128
p49
aV6166
p50
aV6172
p51
aV6206
p52
aV6230
p53
aV6235
p54
aV6277
p55
aV6414
p56
aV8114
p57
aV8163
p58
aV8210
p59
aV9912
p60
a.