(lp1
V1785
p2
aV3067
p3
aV3093
p4
aV3131
p5
aV3285
p6
aV3289
p7
aV3303
p8
aV3324
p9
aV3373
p10
aV3402
p11
aV3498
p12
aV3508
p13
aV3541
p14
aV3551
p15
aV3552
p16
aV3563
p17
aV3580
p18
aV3587
p19
aV3628
p20
aV3642
p21
aV3663
p22
aV5205
p23
aV5383
p24
aV5452
p25
aV5489
p26
aV5493
p27
aV5536
p28
aV6146
p29
aV6151
p30
aV6187
p31
aV6238
p32
aV6247
p33
aV6275
p34
aV8047
p35
aV8085
p36
aV8092
p37
aV8183
p38
aV8383
p39
a.