(lp1
V1584
p2
aV2221
p3
aV2640
p4
aV3252
p5
aV3284
p6
aV4430
p7
aV4529
p8
aV5306
p9
aV5312
p10
aV5530
p11
aV6179
p12
aV6236
p13
aV6294
p14
aV6803
p15
aV8390
p16
aV8401
p17
aV8418
p18
aV8421
p19
aV8423
p20
aV8426
p21
aV8435
p22
aV8905
p23
aV8906
p24
aV8913
p25
aV8916
p26
aV8921
p27
aV8924
p28
aV8925
p29
aV8928
p30
aV8929
p31
aV8932
p32
aV8933
p33
aV8934
p34
aV8935
p35
aV8936
p36
aV8937
p37
aV8938
p38
aV8942
p39
a.